; ModuleID = 'source-C-CXX/4/571.c'
source_filename = "source-C-CXX/4/571.c"
target datalayout = "e-m:e-p270:32:32-p271:32:32-p272:64:64-i64:64-f80:128-n8:16:32:64-S128"
target triple = "x86_64-pc-linux-gnu"

@.str = private unnamed_addr constant [3 x i8] c"%f\00", align 1
@.str.1 = private unnamed_addr constant [3 x i8] c"%s\00", align 1
@.str.2 = private unnamed_addr constant [6 x i8] c"error\00", align 1
@.str.3 = private unnamed_addr constant [4 x i8] c"yes\00", align 1
@.str.4 = private unnamed_addr constant [3 x i8] c"no\00", align 1

; Function Attrs: nofree nounwind sspstrong uwtable
define dso_local i32 @main() local_unnamed_addr #0 {
  %1 = alloca [500 x i8], align 16
  %2 = alloca [500 x i8], align 16
  %3 = alloca float, align 4
  %4 = getelementptr inbounds [500 x i8], [500 x i8]* %1, i64 0, i64 0
  call void @llvm.lifetime.start.p0i8(i64 500, i8* nonnull %4) #4
  %5 = getelementptr inbounds [500 x i8], [500 x i8]* %2, i64 0, i64 0
  call void @llvm.lifetime.start.p0i8(i64 500, i8* nonnull %5) #4
  %6 = bitcast float* %3 to i8*
  call void @llvm.lifetime.start.p0i8(i64 4, i8* nonnull %6) #4
  %7 = call i32 (i8*, ...) @__isoc99_scanf(i8* getelementptr inbounds ([3 x i8], [3 x i8]* @.str, i64 0, i64 0), float* nonnull %3)
  %8 = call i32 (i8*, ...) @__isoc99_scanf(i8* getelementptr inbounds ([3 x i8], [3 x i8]* @.str.1, i64 0, i64 0), i8* nonnull %4)
  %9 = call i32 (i8*, ...) @__isoc99_scanf(i8* getelementptr inbounds ([3 x i8], [3 x i8]* @.str.1, i64 0, i64 0), i8* nonnull %5)
  %10 = call i64 @strlen(i8* noundef nonnull %4) #5
  %11 = uitofp i64 %10 to float
  %12 = call i64 @strlen(i8* noundef nonnull %5) #5
  %13 = uitofp i64 %12 to float
  %14 = fcmp une float %11, %13
  br i1 %14, label %50, label %15

15:                                               ; preds = %0
  %16 = icmp eq i64 %10, 0
  br i1 %16, label %44, label %18

17:                                               ; preds = %25
  br i1 %16, label %44, label %30

18:                                               ; preds = %15, %25
  %19 = phi i64 [ %26, %25 ], [ 0, %15 ]
  %20 = getelementptr inbounds [500 x i8], [500 x i8]* %1, i64 0, i64 %19
  %21 = load i8, i8* %20, align 1, !tbaa !5
  switch i8 %21, label %50 [
    i8 84, label %22
    i8 71, label %22
    i8 67, label %22
    i8 65, label %22
  ]

22:                                               ; preds = %18, %18, %18, %18
  %23 = getelementptr inbounds [500 x i8], [500 x i8]* %2, i64 0, i64 %19
  %24 = load i8, i8* %23, align 1, !tbaa !5
  switch i8 %24, label %50 [
    i8 84, label %25
    i8 71, label %25
    i8 67, label %25
    i8 65, label %25
  ]

25:                                               ; preds = %22, %22, %22, %22
  %26 = add nuw i64 %19, 1
  %27 = trunc i64 %26 to i32
  %28 = sitofp i32 %27 to float
  %29 = fcmp olt float %28, %11
  br i1 %29, label %18, label %17, !llvm.loop !8

30:                                               ; preds = %17, %30
  %31 = phi i64 [ %40, %30 ], [ 0, %17 ]
  %32 = phi float [ %39, %30 ], [ 0.000000e+00, %17 ]
  %33 = getelementptr inbounds [500 x i8], [500 x i8]* %1, i64 0, i64 %31
  %34 = load i8, i8* %33, align 1, !tbaa !5
  %35 = getelementptr inbounds [500 x i8], [500 x i8]* %2, i64 0, i64 %31
  %36 = load i8, i8* %35, align 1, !tbaa !5
  %37 = icmp eq i8 %34, %36
  %38 = fadd float %32, 1.000000e+00
  %39 = select i1 %37, float %38, float %32
  %40 = add nuw i64 %31, 1
  %41 = trunc i64 %40 to i32
  %42 = sitofp i32 %41 to float
  %43 = fcmp olt float %42, %11
  br i1 %43, label %30, label %44, !llvm.loop !10

44:                                               ; preds = %30, %15, %17
  %45 = phi float [ 0.000000e+00, %17 ], [ 0.000000e+00, %15 ], [ %39, %30 ]
  %46 = fdiv float %45, %11
  %47 = load float, float* %3, align 4, !tbaa !11
  %48 = fcmp ogt float %46, %47
  %49 = select i1 %48, i8* getelementptr inbounds ([4 x i8], [4 x i8]* @.str.3, i64 0, i64 0), i8* getelementptr inbounds ([3 x i8], [3 x i8]* @.str.4, i64 0, i64 0)
  br label %50

50:                                               ; preds = %18, %22, %44, %0
  %51 = phi i8* [ getelementptr inbounds ([6 x i8], [6 x i8]* @.str.2, i64 0, i64 0), %0 ], [ %49, %44 ], [ getelementptr inbounds ([6 x i8], [6 x i8]* @.str.2, i64 0, i64 0), %22 ], [ getelementptr inbounds ([6 x i8], [6 x i8]* @.str.2, i64 0, i64 0), %18 ]
  %52 = call i32 (i8*, ...) @printf(i8* nonnull dereferenceable(1) %51)
  call void @llvm.lifetime.end.p0i8(i64 4, i8* nonnull %6) #4
  call void @llvm.lifetime.end.p0i8(i64 500, i8* nonnull %5) #4
  call void @llvm.lifetime.end.p0i8(i64 500, i8* nonnull %4) #4
  ret i32 0
}

; Function Attrs: argmemonly mustprogress nofree nosync nounwind willreturn
declare void @llvm.lifetime.start.p0i8(i64 immarg, i8* nocapture) #1

; Function Attrs: nofree nounwind
declare noundef i32 @__isoc99_scanf(i8* nocapture noundef readonly, ...) local_unnamed_addr #2

; Function Attrs: argmemonly mustprogress nofree nounwind readonly willreturn
declare i64 @strlen(i8* nocapture) local_unnamed_addr #3

; Function Attrs: nofree nounwind
declare noundef i32 @printf(i8* nocapture noundef readonly, ...) local_unnamed_addr #2

; Function Attrs: argmemonly mustprogress nofree nosync nounwind willreturn
declare void @llvm.lifetime.end.p0i8(i64 immarg, i8* nocapture) #1


!llvm.module.flags = !{!0, !1, !2, !3}
!llvm.ident = !{!4}

!0 = !{i32 1, !"wchar_size", i32 4}
!1 = !{i32 7, !"PIC Level", i32 2}
!2 = !{i32 7, !"PIE Level", i32 2}
!3 = !{i32 7, !"uwtable", i32 1}
!4 = !{!"clang version 13.0.0"}
!5 = !{!6, !6, i64 0}
!6 = !{!"omnipotent char", !7, i64 0}
!7 = !{!"Simple C/C++ TBAA"}
!8 = distinct !{!8, !9}
!9 = !{!"llvm.loop.mustprogress"}
!10 = distinct !{!10, !9}
!11 = !{!12, !12, i64 0}
!12 = !{!"float", !6, i64 0}
